target datalayout = "e-m:e-p270:32:32-p271:32:32-p272:64:64-i64:64-i128:128-f80:128-n8:16:32:64-S128"
target triple = "x86_64-pc-linux-gnu"

%"class.std::vector.5" = type { %"struct.std::_Vector_base.6" }
%"struct.std::_Vector_base.6" = type { %"struct.std::_Vector_base<WasmEdge::Plugin::Plugin, std::allocator<WasmEdge::Plugin::Plugin>>::_Vector_impl" }
%"struct.std::_Vector_base<WasmEdge::Plugin::Plugin, std::allocator<WasmEdge::Plugin::Plugin>>::_Vector_impl" = type { %"struct.std::_Vector_base<WasmEdge::Plugin::Plugin, std::allocator<WasmEdge::Plugin::Plugin>>::_Vector_impl_data" }
%"struct.std::_Vector_base<WasmEdge::Plugin::Plugin, std::allocator<WasmEdge::Plugin::Plugin>>::_Vector_impl_data" = type { ptr, ptr, ptr }
%"struct.cxx20::span" = type { %"class.cxx20::detail::span_storage" }
%"class.cxx20::detail::span_storage" = type { ptr, i64 }

@_ZN8WasmEdge6Plugin6Plugin14PluginRegistryE = global %"class.std::vector.5" zeroinitializer, align 8

; Function Attrs: mustprogress nounwind uwtable
define linkonce_odr hidden noundef ptr @_ZNKSt6vectorIN8WasmEdge6Plugin6PluginESaIS2_EE11_M_data_ptrIS2_EEPT_S7_(ptr noundef nonnull align 8 dereferenceable(24) %0, ptr noundef %1) #1 comdat align 2 {
  %3 = alloca ptr, align 8
  %4 = alloca ptr, align 8
  store ptr %0, ptr %3, align 8
  store ptr %1, ptr %4, align 8
  %5 = load ptr, ptr %4, align 8
  ret ptr %5
}

; Function Attrs: mustprogress nounwind uwtable
define linkonce_odr hidden noundef i64 @_ZNKSt6vectorIN8WasmEdge6Plugin6PluginESaIS2_EE4sizeEv(ptr noundef nonnull align 8 dereferenceable(24) %0) #1 comdat align 2 {
  %2 = alloca ptr, align 8
  store ptr %0, ptr %2, align 8
  %3 = load ptr, ptr %2, align 8
  %4 = getelementptr inbounds %"struct.std::_Vector_base.6", ptr %3, i32 0, i32 0
  %5 = getelementptr inbounds %"struct.std::_Vector_base<WasmEdge::Plugin::Plugin, std::allocator<WasmEdge::Plugin::Plugin>>::_Vector_impl_data", ptr %4, i32 0, i32 1
  %6 = load ptr, ptr %5, align 8
  %7 = getelementptr inbounds %"struct.std::_Vector_base.6", ptr %3, i32 0, i32 0
  %8 = getelementptr inbounds %"struct.std::_Vector_base<WasmEdge::Plugin::Plugin, std::allocator<WasmEdge::Plugin::Plugin>>::_Vector_impl_data", ptr %7, i32 0, i32 0
  %9 = load ptr, ptr %8, align 8
  %10 = ptrtoint ptr %6 to i64
  %11 = ptrtoint ptr %9 to i64
  %12 = sub i64 %10, %11
  %13 = sdiv exact i64 %12, 224
  ret i64 %13
}

; Function Attrs: mustprogress nounwind uwtable
define linkonce_odr hidden noundef ptr @_ZNSt6vectorIN8WasmEdge6Plugin6PluginESaIS2_EE4dataEv(ptr noundef nonnull align 8 dereferenceable(24) %0) #1 comdat align 2 {
  %2 = alloca ptr, align 8
  store ptr %0, ptr %2, align 8
  %3 = load ptr, ptr %2, align 8
  %4 = getelementptr inbounds %"struct.std::_Vector_base.6", ptr %3, i32 0, i32 0
  %5 = getelementptr inbounds %"struct.std::_Vector_base<WasmEdge::Plugin::Plugin, std::allocator<WasmEdge::Plugin::Plugin>>::_Vector_impl_data", ptr %4, i32 0, i32 0
  %6 = load ptr, ptr %5, align 8
  %7 = call noundef ptr @_ZNKSt6vectorIN8WasmEdge6Plugin6PluginESaIS2_EE11_M_data_ptrIS2_EEPT_S7_(ptr noundef nonnull align 8 dereferenceable(24) %3, ptr noundef %6) #2
  ret ptr %7
}

; Function Attrs: mustprogress nounwind uwtable
define linkonce_odr hidden void @_ZN5cxx206detail12span_storageIKN8WasmEdge6Plugin6PluginELm18446744073709551615EEC2EPS5_m(ptr noundef nonnull align 8 dereferenceable(16) %0, ptr noundef %1, i64 noundef %2) unnamed_addr #1 comdat align 2 {
  %4 = alloca ptr, align 8
  %5 = alloca ptr, align 8
  %6 = alloca i64, align 8
  store ptr %0, ptr %4, align 8
  store ptr %1, ptr %5, align 8
  store i64 %2, ptr %6, align 8
  %7 = load ptr, ptr %4, align 8
  %8 = getelementptr inbounds %"class.cxx20::detail::span_storage", ptr %7, i32 0, i32 0
  %9 = load ptr, ptr %5, align 8
  store ptr %9, ptr %8, align 8
  %10 = getelementptr inbounds %"class.cxx20::detail::span_storage", ptr %7, i32 0, i32 1
  %11 = load i64, ptr %6, align 8
  store i64 %11, ptr %10, align 8
  ret void
}

; Function Attrs: mustprogress nounwind uwtable
define linkonce_odr noundef i64 @_ZSt4sizeISt6vectorIN8WasmEdge6Plugin6PluginESaIS3_EEEDTcldtfp_4sizeEERKT_(ptr noundef nonnull align 8 dereferenceable(24) %0) #1 comdat {
  %2 = alloca ptr, align 8
  store ptr %0, ptr %2, align 8
  %3 = load ptr, ptr %2, align 8
  %4 = call noundef i64 @_ZNKSt6vectorIN8WasmEdge6Plugin6PluginESaIS2_EE4sizeEv(ptr noundef nonnull align 8 dereferenceable(24) %3) #2
  ret i64 %4
}

; Function Attrs: mustprogress nounwind uwtable
define linkonce_odr noundef ptr @_ZSt4dataISt6vectorIN8WasmEdge6Plugin6PluginESaIS3_EEEDTcldtfp_4dataEERT_(ptr noundef nonnull align 8 dereferenceable(24) %0) #1 comdat {
  %2 = alloca ptr, align 8
  store ptr %0, ptr %2, align 8
  %3 = load ptr, ptr %2, align 8
  %4 = call noundef ptr @_ZNSt6vectorIN8WasmEdge6Plugin6PluginESaIS2_EE4dataEv(ptr noundef nonnull align 8 dereferenceable(24) %3) #2
  ret ptr %4
}

; Function Attrs: noreturn nounwind uwtable
define linkonce_odr hidden void @__clang_call_terminate(ptr noundef %0) #5 comdat {
  %2 = call ptr @__cxa_begin_catch(ptr %0) #2
  call void @_ZSt9terminatev() #18
  unreachable
}

; Function Attrs: mustprogress nounwind uwtable
define linkonce_odr hidden void @_ZN5cxx204spanIKN8WasmEdge6Plugin6PluginELm18446744073709551615EEC2IRSt6vectorIS3_SaIS3_EETnPNSt9enable_ifIXaasr6detailE18is_generic_range_vIT_Esr6detailE21is_compatible_range_vIS4_SC_EEvE4typeELPv0EEEOSC_(ptr noundef nonnull align 8 dereferenceable(16) %0, ptr noundef nonnull align 8 dereferenceable(24) %1) unnamed_addr #1 comdat align 2 {
  %3 = alloca ptr, align 8
  %4 = alloca ptr, align 8
  store ptr %0, ptr %3, align 8
  store ptr %1, ptr %4, align 8
  %5 = load ptr, ptr %3, align 8
  %6 = load ptr, ptr %4, align 8
  %7 = call noundef ptr @_ZSt4dataISt6vectorIN8WasmEdge6Plugin6PluginESaIS3_EEEDTcldtfp_4dataEERT_(ptr noundef nonnull align 8 dereferenceable(24) %6) #2
  %8 = load ptr, ptr %4, align 8
  %9 = call noundef i64 @_ZSt4sizeISt6vectorIN8WasmEdge6Plugin6PluginESaIS3_EEEDTcldtfp_4sizeEERKT_(ptr noundef nonnull align 8 dereferenceable(24) %8) #2
  call void @_ZN5cxx206detail12span_storageIKN8WasmEdge6Plugin6PluginELm18446744073709551615EEC2EPS5_m(ptr noundef nonnull align 8 dereferenceable(16) %5, ptr noundef %7, i64 noundef %9) #2
  ret void
}

; Function Attrs: mustprogress nounwind uwtable
define { ptr, i64 } @_ZN8WasmEdge6Plugin6Plugin7pluginsEv() #1 align 2 personality ptr @__gxx_personality_v0 {
  %1 = alloca %"struct.cxx20::span", align 8
  invoke void @_ZN5cxx204spanIKN8WasmEdge6Plugin6PluginELm18446744073709551615EEC2IRSt6vectorIS3_SaIS3_EETnPNSt9enable_ifIXaasr6detailE18is_generic_range_vIT_Esr6detailE21is_compatible_range_vIS4_SC_EEvE4typeELPv0EEEOSC_(ptr noundef nonnull align 8 dereferenceable(16) %1, ptr noundef nonnull align 8 dereferenceable(24) @_ZN8WasmEdge6Plugin6Plugin14PluginRegistryE)
          to label %2 unwind label %5

2:                                                ; preds = %0
  %3 = getelementptr inbounds %"struct.cxx20::span", ptr %1, i32 0, i32 0
  %4 = load { ptr, i64 }, ptr %3, align 8
  ret { ptr, i64 } %4

5:                                                ; preds = %0
  %6 = landingpad { ptr, i32 }
          catch ptr null
  %7 = extractvalue { ptr, i32 } %6, 0
  call void @__clang_call_terminate(ptr %7) #18
  unreachable
}