; Function Attrs: mustprogress nofree norecurse nosync nounwind willreturn memory(read, argmem: none, inaccessiblemem: none) uwtable
define { ptr, i64 } @_ZN8WasmEdge6Plugin6Plugin7pluginsEv() local_unnamed_addr #9 align 2 personality ptr @__gxx_personality_v0 {
  %1 = load ptr, ptr @_ZN8WasmEdge6Plugin6Plugin14PluginRegistryE, align 8
  %2 = load ptr, ptr getelementptr inbounds (i8, ptr @_ZN8WasmEdge6Plugin6Plugin14PluginRegistryE, i64 8), align 8
  %3 = ptrtoint ptr %2 to i64
  %4 = ptrtoint ptr %1 to i64
  %5 = sub i64 %3, %4
  %6 = sdiv exact i64 %5, 224
  %.fca.0.insert = insertvalue { ptr, i64 } poison, ptr %1, 0
  %.fca.1.insert = insertvalue { ptr, i64 } %.fca.0.insert, i64 %6, 1
  ret { ptr, i64 } %.fca.1.insert
}